; Function Attrs: mustprogress nounwind uwtable
define dso_local void @_ZN5clang6format13TokenAnalyzer9finishRunEv(ptr noundef nonnull align 8 dereferenceable(4276) %0) unnamed_addr #0 align 2 {
  %2 = alloca %"class.llvm::SmallVector.312", align 8
  %3 = getelementptr inbounds nuw i8, ptr %0, i64 1920
  %4 = getelementptr inbounds i8, ptr %2, i64 16
  call void @_ZN4llvm15SmallVectorBaseIjEC2EPvm(ptr noundef nonnull align 8 dereferenceable(16) %2, ptr noundef nonnull %4, i64 noundef 16) #14
  call void @_ZN4llvm23SmallVectorTemplateBaseINS_11SmallVectorIN5clang6format13UnwrappedLineELj16EEELb0EE9push_backEOS5_(ptr noundef nonnull align 8 dereferenceable(16) %3, ptr noundef nonnull align 8 dereferenceable(1168) %2)
  %5 = load ptr, ptr %2, align 8
  %6 = call noundef i64 @_ZNK4llvm15SmallVectorBaseIjE4sizeEv(ptr noundef nonnull align 8 dereferenceable(16) %2) #14
  %.not4.i.i = icmp eq i64 %6, 0
  br i1 %.not4.i.i, label %_ZN4llvm23SmallVectorTemplateBaseIN5clang6format13UnwrappedLineELb0EE13destroy_rangeEPS3_S5_.exit.i, label %.lr.ph.i.preheader.i

.lr.ph.i.preheader.i:                             ; preds = %1
  %7 = getelementptr inbounds %"struct.clang::format::UnwrappedLine", ptr %5, i64 %6
  br label %.lr.ph.i.i

.lr.ph.i.i:                                       ; preds = %.lr.ph.i.i, %.lr.ph.i.preheader.i
  %.05.i.i = phi ptr [ %8, %.lr.ph.i.i ], [ %7, %.lr.ph.i.preheader.i ]
  %8 = getelementptr inbounds i8, ptr %.05.i.i, i64 -72
  call void @_ZNSt7__cxx114listIN5clang6format17UnwrappedLineNodeESaIS3_EED2Ev(ptr noundef nonnull align 8 dereferenceable(24) %8) #14
  %.not.i.i = icmp eq ptr %5, %8
  br i1 %.not.i.i, label %_ZN4llvm23SmallVectorTemplateBaseIN5clang6format13UnwrappedLineELb0EE13destroy_rangeEPS3_S5_.exit.i, label %.lr.ph.i.i, !llvm.loop !15

_ZN4llvm23SmallVectorTemplateBaseIN5clang6format13UnwrappedLineELb0EE13destroy_rangeEPS3_S5_.exit.i: ; preds = %.lr.ph.i.i, %1
  %9 = load ptr, ptr %2, align 8
  %10 = icmp eq ptr %9, %4
  br i1 %10, label %_ZN4llvm11SmallVectorIN5clang6format13UnwrappedLineELj16EED2Ev.exit, label %11

11:                                               ; preds = %_ZN4llvm23SmallVectorTemplateBaseIN5clang6format13UnwrappedLineELb0EE13destroy_rangeEPS3_S5_.exit.i
  call void @free(ptr noundef %9) #14
  br label %_ZN4llvm11SmallVectorIN5clang6format13UnwrappedLineELj16EED2Ev.exit

_ZN4llvm11SmallVectorIN5clang6format13UnwrappedLineELj16EED2Ev.exit: ; preds = %_ZN4llvm23SmallVectorTemplateBaseIN5clang6format13UnwrappedLineELb0EE13destroy_rangeEPS3_S5_.exit.i, %11
  ret void
}